target datalayout = "e-m:e-p270:32:32-p271:32:32-p272:64:64-i64:64-i128:128-f80:128-n8:16:32:64-S128"
target triple = "x86_64-pc-linux-gnu"

%struct.OutputStream = type { ptr, ptr, ptr, ptr, i64, i64, i64, i32, ptr, i32, i32, i32, ptr, ptr, ptr, i32, i32, [1024 x i8], [32768 x i8] }

; Function Attrs: inlinehint nounwind uwtable
define internal i32 @ffurl_write(ptr noundef %0, ptr noundef %1, i32 noundef %2) #6 {
  %4 = alloca ptr, align 8
  %5 = alloca ptr, align 8
  %6 = alloca i32, align 4
  store ptr %0, ptr %4, align 8, !tbaa !134
  store ptr %1, ptr %5, align 8, !tbaa !101
  store i32 %2, ptr %6, align 4, !tbaa !28
  %7 = load ptr, ptr %4, align 8, !tbaa !134
  %8 = load ptr, ptr %5, align 8, !tbaa !101
  %9 = load i32, ptr %6, align 4, !tbaa !28
  %10 = call i32 @ffurl_write2(ptr noundef %7, ptr noundef %8, i32 noundef %9)
  ret i32 %10
}

; Function Attrs: nounwind uwtable
define internal i32 @ism_write(ptr noundef %0, ptr noundef %1, i32 noundef %2) #0 {
  %4 = alloca ptr, align 8
  %5 = alloca ptr, align 8
  %6 = alloca i32, align 4
  %7 = alloca ptr, align 8
  store ptr %0, ptr %4, align 8, !tbaa !56
  store ptr %1, ptr %5, align 8, !tbaa !101
  store i32 %2, ptr %6, align 4, !tbaa !28
  call void @llvm.lifetime.start.p0(i64 8, ptr %7) #9
  %8 = load ptr, ptr %4, align 8, !tbaa !56
  store ptr %8, ptr %7, align 8, !tbaa !35
  %9 = load ptr, ptr %7, align 8, !tbaa !35
  %10 = getelementptr inbounds nuw %struct.OutputStream, ptr %9, i32 0, i32 1
  %11 = load ptr, ptr %10, align 8, !tbaa !102
  %12 = icmp ne ptr %11, null
  br i1 %12, label %13, label %20

13:                                               ; preds = %3
  %14 = load ptr, ptr %7, align 8, !tbaa !35
  %15 = getelementptr inbounds nuw %struct.OutputStream, ptr %14, i32 0, i32 1
  %16 = load ptr, ptr %15, align 8, !tbaa !102
  %17 = load ptr, ptr %5, align 8, !tbaa !101
  %18 = load i32, ptr %6, align 4, !tbaa !28
  %19 = call i32 @ffurl_write(ptr noundef %16, ptr noundef %17, i32 noundef %18)
  br label %20

20:                                               ; preds = %13, %3
  %21 = load ptr, ptr %7, align 8, !tbaa !35
  %22 = getelementptr inbounds nuw %struct.OutputStream, ptr %21, i32 0, i32 2
  %23 = load ptr, ptr %22, align 8, !tbaa !103
  %24 = icmp ne ptr %23, null
  br i1 %24, label %25, label %32

25:                                               ; preds = %20
  %26 = load ptr, ptr %7, align 8, !tbaa !35
  %27 = getelementptr inbounds nuw %struct.OutputStream, ptr %26, i32 0, i32 2
  %28 = load ptr, ptr %27, align 8, !tbaa !103
  %29 = load ptr, ptr %5, align 8, !tbaa !101
  %30 = load i32, ptr %6, align 4, !tbaa !28
  %31 = call i32 @ffurl_write(ptr noundef %28, ptr noundef %29, i32 noundef %30)
  br label %32

32:                                               ; preds = %25, %20
  %33 = load i32, ptr %6, align 4, !tbaa !28
  %34 = sext i32 %33 to i64
  %35 = load ptr, ptr %7, align 8, !tbaa !35
  %36 = getelementptr inbounds nuw %struct.OutputStream, ptr %35, i32 0, i32 5
  %37 = load i64, ptr %36, align 8, !tbaa !104
  %38 = add nsw i64 %37, %34
  store i64 %38, ptr %36, align 8, !tbaa !104
  %39 = load ptr, ptr %7, align 8, !tbaa !35
  %40 = getelementptr inbounds nuw %struct.OutputStream, ptr %39, i32 0, i32 5
  %41 = load i64, ptr %40, align 8, !tbaa !104
  %42 = load ptr, ptr %7, align 8, !tbaa !35
  %43 = getelementptr inbounds nuw %struct.OutputStream, ptr %42, i32 0, i32 4
  %44 = load i64, ptr %43, align 8, !tbaa !105
  %45 = icmp sge i64 %41, %44
  br i1 %45, label %46, label %52

46:                                               ; preds = %32
  %47 = load ptr, ptr %7, align 8, !tbaa !35
  %48 = getelementptr inbounds nuw %struct.OutputStream, ptr %47, i32 0, i32 5
  %49 = load i64, ptr %48, align 8, !tbaa !104
  %50 = load ptr, ptr %7, align 8, !tbaa !35
  %51 = getelementptr inbounds nuw %struct.OutputStream, ptr %50, i32 0, i32 4
  store i64 %49, ptr %51, align 8, !tbaa !105
  br label %52

52:                                               ; preds = %46, %32
  %53 = load i32, ptr %6, align 4, !tbaa !28
  call void @llvm.lifetime.end.p0(i64 8, ptr %7) #9
  ret i32 %53
}