; Function Attrs: nounwind uwtable
define internal noundef i32 @ism_write(ptr noundef captures(none) %0, ptr noundef %1, i32 noundef returned %2) #0 {
  %4 = getelementptr inbounds nuw i8, ptr %0, i64 8
  %5 = load ptr, ptr %4, align 8, !tbaa !94
  %.not = icmp eq ptr %5, null
  br i1 %.not, label %8, label %6

6:                                                ; preds = %3
  %7 = tail call i32 @ffurl_write2(ptr noundef nonnull %5, ptr noundef %1, i32 noundef %2) #8
  br label %8

8:                                                ; preds = %6, %3
  %9 = getelementptr inbounds nuw i8, ptr %0, i64 16
  %10 = load ptr, ptr %9, align 8, !tbaa !95
  %.not17 = icmp eq ptr %10, null
  br i1 %.not17, label %13, label %11

11:                                               ; preds = %8
  %12 = tail call i32 @ffurl_write2(ptr noundef nonnull %10, ptr noundef %1, i32 noundef %2) #8
  br label %13

13:                                               ; preds = %11, %8
  %14 = sext i32 %2 to i64
  %15 = getelementptr inbounds nuw i8, ptr %0, i64 40
  %16 = load i64, ptr %15, align 8, !tbaa !96
  %17 = add nsw i64 %16, %14
  store i64 %17, ptr %15, align 8, !tbaa !96
  %18 = getelementptr inbounds nuw i8, ptr %0, i64 32
  %19 = load i64, ptr %18, align 8, !tbaa !97
  %.not18 = icmp slt i64 %17, %19
  br i1 %.not18, label %21, label %20

20:                                               ; preds = %13
  store i64 %17, ptr %18, align 8, !tbaa !97
  br label %21

21:                                               ; preds = %20, %13
  ret i32 %2
}